target datalayout = "e-m:e-p270:32:32-p271:32:32-p272:64:64-i64:64-i128:128-f80:128-n8:16:32:64-S128"
target triple = "x86_64-pc-linux-gnu"

%struct.s_p_hashtbl = type { %struct.re_pattern_buffer, [173 x ptr] }
%struct.re_pattern_buffer = type { ptr, i64, i64, i64, ptr, ptr, i64, i8 }
%struct.s_p_values = type { ptr, i32, i32, i32, ptr, ptr, ptr, ptr }
%struct._expline_values_st = type { ptr, ptr, ptr }

; Function Attrs: nounwind uwtable
define internal void @_hashtbl_plain_to_string(ptr noundef %0) #0 {
  %2 = alloca ptr, align 8
  %3 = alloca ptr, align 8
  %4 = alloca ptr, align 8
  %5 = alloca i32, align 4
  %6 = alloca i32, align 4
  store ptr %0, ptr %2, align 8
  call void @llvm.lifetime.start.p0(i64 8, ptr %3) #9
  call void @llvm.lifetime.start.p0(i64 8, ptr %4) #9
  call void @llvm.lifetime.start.p0(i64 4, ptr %5) #9
  call void @llvm.lifetime.start.p0(i64 4, ptr %6) #9
  store i32 0, ptr %5, align 4
  br label %7

7:                                                ; preds = %67, %1
  %8 = load i32, ptr %5, align 4
  %9 = icmp slt i32 %8, 173
  br i1 %9, label %10, label %70

10:                                               ; preds = %7
  %11 = load ptr, ptr %2, align 8
  %12 = getelementptr inbounds nuw %struct.s_p_hashtbl, ptr %11, i32 0, i32 1
  %13 = load i32, ptr %5, align 4
  %14 = sext i32 %13 to i64
  %15 = getelementptr inbounds [173 x ptr], ptr %12, i64 0, i64 %14
  %16 = load ptr, ptr %15, align 8
  store ptr %16, ptr %4, align 8
  br label %17

17:                                               ; preds = %62, %10
  %18 = load ptr, ptr %4, align 8
  %19 = icmp ne ptr %18, null
  br i1 %19, label %20, label %66

20:                                               ; preds = %17
  %21 = load ptr, ptr %4, align 8
  %22 = getelementptr inbounds nuw %struct.s_p_values, ptr %21, i32 0, i32 1
  %23 = load i32, ptr %22, align 8
  %24 = icmp eq i32 %23, 11
  br i1 %24, label %25, label %28

25:                                               ; preds = %20
  %26 = load ptr, ptr %4, align 8
  %27 = getelementptr inbounds nuw %struct.s_p_values, ptr %26, i32 0, i32 1
  store i32 1, ptr %27, align 8
  br label %61

28:                                               ; preds = %20
  %29 = load ptr, ptr %4, align 8
  %30 = getelementptr inbounds nuw %struct.s_p_values, ptr %29, i32 0, i32 1
  %31 = load i32, ptr %30, align 8
  %32 = icmp eq i32 %31, 9
  br i1 %32, label %38, label %33

33:                                               ; preds = %28
  %34 = load ptr, ptr %4, align 8
  %35 = getelementptr inbounds nuw %struct.s_p_values, ptr %34, i32 0, i32 1
  %36 = load i32, ptr %35, align 8
  %37 = icmp eq i32 %36, 10
  br i1 %37, label %38, label %60

38:                                               ; preds = %33, %28
  %39 = load ptr, ptr %4, align 8
  %40 = getelementptr inbounds nuw %struct.s_p_values, ptr %39, i32 0, i32 4
  %41 = load ptr, ptr %40, align 8
  store ptr %41, ptr %3, align 8
  store i32 0, ptr %6, align 4
  br label %42

42:                                               ; preds = %56, %38
  %43 = load i32, ptr %6, align 4
  %44 = load ptr, ptr %4, align 8
  %45 = getelementptr inbounds nuw %struct.s_p_values, ptr %44, i32 0, i32 3
  %46 = load i32, ptr %45, align 8
  %47 = icmp slt i32 %43, %46
  br i1 %47, label %48, label %59

48:                                               ; preds = %42
  %49 = load ptr, ptr %3, align 8
  %50 = getelementptr inbounds nuw %struct._expline_values_st, ptr %49, i32 0, i32 2
  %51 = load ptr, ptr %50, align 8
  %52 = load i32, ptr %6, align 4
  %53 = sext i32 %52 to i64
  %54 = getelementptr inbounds ptr, ptr %51, i64 %53
  %55 = load ptr, ptr %54, align 8
  call void @_hashtbl_plain_to_string(ptr noundef %55)
  br label %56

56:                                               ; preds = %48
  %57 = load i32, ptr %6, align 4
  %58 = add nsw i32 %57, 1
  store i32 %58, ptr %6, align 4
  br label %42, !llvm.loop !43

59:                                               ; preds = %42
  br label %60

60:                                               ; preds = %59, %33
  br label %61

61:                                               ; preds = %60, %25
  br label %62

62:                                               ; preds = %61
  %63 = load ptr, ptr %4, align 8
  %64 = getelementptr inbounds nuw %struct.s_p_values, ptr %63, i32 0, i32 7
  %65 = load ptr, ptr %64, align 8
  store ptr %65, ptr %4, align 8
  br label %17, !llvm.loop !44

66:                                               ; preds = %17
  br label %67

67:                                               ; preds = %66
  %68 = load i32, ptr %5, align 4
  %69 = add nsw i32 %68, 1
  store i32 %69, ptr %5, align 4
  br label %7, !llvm.loop !45

70:                                               ; preds = %7
  call void @llvm.lifetime.end.p0(i64 4, ptr %6) #9
  call void @llvm.lifetime.end.p0(i64 4, ptr %5) #9
  call void @llvm.lifetime.end.p0(i64 8, ptr %4) #9
  call void @llvm.lifetime.end.p0(i64 8, ptr %3) #9
  ret void
}