; Function Attrs: nofree nosync nounwind memory(readwrite, inaccessiblemem: none) uwtable
define internal fastcc void @_hashtbl_plain_to_string(ptr noundef readonly captures(none) %0) unnamed_addr #7 {
  %2 = getelementptr inbounds nuw i8, ptr %0, i64 64
  br label %3

3:                                                ; preds = %1, %._crit_edge
  %indvars.iv25 = phi i64 [ 0, %1 ], [ %indvars.iv.next26, %._crit_edge ]
  %4 = getelementptr inbounds nuw [173 x ptr], ptr %2, i64 0, i64 %indvars.iv25
  %.01619 = load ptr, ptr %4, align 8
  %.not20 = icmp eq ptr %.01619, null
  br i1 %.not20, label %._crit_edge, label %.lr.ph22

.lr.ph22:                                         ; preds = %3, %.loopexit
  %.01621 = phi ptr [ %.016, %.loopexit ], [ %.01619, %3 ]
  %5 = getelementptr inbounds nuw i8, ptr %.01621, i64 8
  %6 = load i32, ptr %5, align 8
  switch i32 %6, label %.loopexit [
    i32 11, label %7
    i32 9, label %8
    i32 10, label %8
  ]

7:                                                ; preds = %.lr.ph22
  store i32 1, ptr %5, align 8
  br label %.loopexit

8:                                                ; preds = %.lr.ph22, %.lr.ph22
  %9 = getelementptr inbounds nuw i8, ptr %.01621, i64 16
  %10 = load i32, ptr %9, align 8
  %11 = icmp sgt i32 %10, 0
  br i1 %11, label %.lr.ph, label %.loopexit

.lr.ph:                                           ; preds = %8
  %12 = getelementptr inbounds nuw i8, ptr %.01621, i64 24
  %13 = load ptr, ptr %12, align 8
  %14 = getelementptr inbounds nuw i8, ptr %13, i64 16
  br label %15

15:                                               ; preds = %.lr.ph, %15
  %indvars.iv = phi i64 [ 0, %.lr.ph ], [ %indvars.iv.next, %15 ]
  %16 = load ptr, ptr %14, align 8
  %17 = getelementptr inbounds nuw ptr, ptr %16, i64 %indvars.iv
  %18 = load ptr, ptr %17, align 8
  tail call fastcc void @_hashtbl_plain_to_string(ptr noundef %18)
  %indvars.iv.next = add nuw nsw i64 %indvars.iv, 1
  %19 = load i32, ptr %9, align 8
  %20 = sext i32 %19 to i64
  %21 = icmp slt i64 %indvars.iv.next, %20
  br i1 %21, label %15, label %.loopexit, !llvm.loop !54

.loopexit:                                        ; preds = %15, %8, %.lr.ph22, %7
  %22 = getelementptr inbounds nuw i8, ptr %.01621, i64 48
  %.016 = load ptr, ptr %22, align 8
  %.not = icmp eq ptr %.016, null
  br i1 %.not, label %._crit_edge, label %.lr.ph22, !llvm.loop !55

._crit_edge:                                      ; preds = %.loopexit, %3
  %indvars.iv.next26 = add nuw nsw i64 %indvars.iv25, 1
  %exitcond.not = icmp eq i64 %indvars.iv.next26, 173
  br i1 %exitcond.not, label %23, label %3, !llvm.loop !56

23:                                               ; preds = %._crit_edge
  ret void
}